target datalayout = "e-m:e-p270:32:32-p271:32:32-p272:64:64-i64:64-i128:128-f80:128-n8:16:32:64-S128"
target triple = "x86_64-pc-linux-gnu"

%"class.std::ios_base::Init" = type { i8 }
%"class.spacer::user_callback" = type { %"class.spacer::spacer_callback", ptr, ptr, ptr, ptr }
%"class.spacer::spacer_callback" = type { ptr, ptr }

$_ZN6spacer15spacer_callbackD2Ev = comdat any

$_ZN6spacer13user_callbackD0Ev = comdat any

$_ZN6spacer13user_callback9new_lemmaEv = comdat any

$_ZN6spacer13user_callback11predecessorEv = comdat any

$_ZN6spacer13user_callback6unfoldEv = comdat any

$_ZN6spacer15spacer_callback9propagateEv = comdat any

$_ZN6spacer15spacer_callback12propagate_ehEv = comdat any

$_ZTIN6spacer15spacer_callbackE = comdat any

$_ZTSN6spacer15spacer_callbackE = comdat any

@_ZStL8__ioinit = internal global %"class.std::ios_base::Init" zeroinitializer, align 1
@__dso_handle = external hidden global i8
@_ZTVN6spacer13user_callbackE = hidden unnamed_addr constant { [12 x ptr] } { [12 x ptr] [ptr null, ptr @_ZTIN6spacer13user_callbackE, ptr @_ZN6spacer15spacer_callbackD2Ev, ptr @_ZN6spacer13user_callbackD0Ev, ptr @_ZN6spacer13user_callback9new_lemmaEv, ptr @_ZN6spacer13user_callback12new_lemma_ehEP4exprj, ptr @_ZN6spacer13user_callback11predecessorEv, ptr @_ZN6spacer13user_callback14predecessor_ehEv, ptr @_ZN6spacer13user_callback6unfoldEv, ptr @_ZN6spacer13user_callback9unfold_ehEv, ptr @_ZN6spacer15spacer_callback9propagateEv, ptr @_ZN6spacer15spacer_callback12propagate_ehEv] }, align 8
@_ZTIN6spacer13user_callbackE = hidden constant { ptr, ptr, ptr } { ptr getelementptr inbounds (ptr, ptr @_ZTVN10__cxxabiv120__si_class_type_infoE, i64 2), ptr @_ZTSN6spacer13user_callbackE, ptr @_ZTIN6spacer15spacer_callbackE }, align 8
@_ZTVN10__cxxabiv120__si_class_type_infoE = external global [0 x ptr]
@_ZTSN6spacer13user_callbackE = hidden constant [25 x i8] c"N6spacer13user_callbackE\00", align 1
@_ZTIN6spacer15spacer_callbackE = linkonce_odr hidden constant { ptr, ptr } { ptr getelementptr inbounds (ptr, ptr @_ZTVN10__cxxabiv117__class_type_infoE, i64 2), ptr @_ZTSN6spacer15spacer_callbackE }, comdat, align 8
@_ZTVN10__cxxabiv117__class_type_infoE = external global [0 x ptr]
@_ZTSN6spacer15spacer_callbackE = linkonce_odr hidden constant [27 x i8] c"N6spacer15spacer_callbackE\00", comdat, align 1
@llvm.global_ctors = appending global [1 x { i32, ptr, ptr }] [{ i32, ptr, ptr } { i32 65535, ptr @_GLOBAL__sub_I_spacer_callback.cpp, ptr null }]

; Function Attrs: uwtable
define internal void @__cxx_global_var_init() #0 section ".text.startup" {
  call void @_ZNSt8ios_base4InitC1Ev(ptr noundef nonnull align 1 dereferenceable(1) @_ZStL8__ioinit)
  %1 = call i32 @__cxa_atexit(ptr @_ZNSt8ios_base4InitD1Ev, ptr @_ZStL8__ioinit, ptr @__dso_handle) #3
  ret void
}

declare void @_ZNSt8ios_base4InitC1Ev(ptr noundef nonnull align 1 dereferenceable(1)) unnamed_addr #1

; Function Attrs: nounwind
declare void @_ZNSt8ios_base4InitD1Ev(ptr noundef nonnull align 1 dereferenceable(1)) unnamed_addr #2

; Function Attrs: nounwind
declare i32 @__cxa_atexit(ptr, ptr, ptr) #3

; Function Attrs: mustprogress uwtable
define hidden void @_ZN6spacer13user_callback12new_lemma_ehEP4exprj(ptr noundef nonnull align 8 dereferenceable(48) %0, ptr noundef %1, i32 noundef %2) unnamed_addr #4 align 2 {
  %4 = alloca ptr, align 8
  %5 = alloca ptr, align 8
  %6 = alloca i32, align 4
  store ptr %0, ptr %4, align 8, !tbaa !3
  store ptr %1, ptr %5, align 8, !tbaa !8
  store i32 %2, ptr %6, align 4, !tbaa !10
  %7 = load ptr, ptr %4, align 8
  %8 = getelementptr inbounds nuw %"class.spacer::user_callback", ptr %7, i32 0, i32 2
  %9 = load ptr, ptr %8, align 8, !tbaa !12
  %10 = getelementptr inbounds nuw %"class.spacer::user_callback", ptr %7, i32 0, i32 1
  %11 = load ptr, ptr %10, align 8, !tbaa !16
  %12 = load ptr, ptr %5, align 8, !tbaa !8
  %13 = load i32, ptr %6, align 4, !tbaa !10
  call void %9(ptr noundef %11, ptr noundef %12, i32 noundef %13)
  ret void
}

; Function Attrs: mustprogress uwtable
define hidden void @_ZN6spacer13user_callback14predecessor_ehEv(ptr noundef nonnull align 8 dereferenceable(48) %0) unnamed_addr #4 align 2 {
  %2 = alloca ptr, align 8
  store ptr %0, ptr %2, align 8, !tbaa !3
  %3 = load ptr, ptr %2, align 8
  %4 = getelementptr inbounds nuw %"class.spacer::user_callback", ptr %3, i32 0, i32 3
  %5 = load ptr, ptr %4, align 8, !tbaa !17
  %6 = getelementptr inbounds nuw %"class.spacer::user_callback", ptr %3, i32 0, i32 1
  %7 = load ptr, ptr %6, align 8, !tbaa !16
  call void %5(ptr noundef %7)
  ret void
}

; Function Attrs: mustprogress uwtable
define hidden void @_ZN6spacer13user_callback9unfold_ehEv(ptr noundef nonnull align 8 dereferenceable(48) %0) unnamed_addr #4 align 2 {
  %2 = alloca ptr, align 8
  store ptr %0, ptr %2, align 8, !tbaa !3
  %3 = load ptr, ptr %2, align 8
  %4 = getelementptr inbounds nuw %"class.spacer::user_callback", ptr %3, i32 0, i32 4
  %5 = load ptr, ptr %4, align 8, !tbaa !18
  %6 = getelementptr inbounds nuw %"class.spacer::user_callback", ptr %3, i32 0, i32 1
  %7 = load ptr, ptr %6, align 8, !tbaa !16
  call void %5(ptr noundef %7)
  ret void
}

; Function Attrs: mustprogress nounwind uwtable
define linkonce_odr hidden void @_ZN6spacer15spacer_callbackD2Ev(ptr noundef nonnull align 8 dereferenceable(16) %0) unnamed_addr #5 comdat align 2 {
  %2 = alloca ptr, align 8
  store ptr %0, ptr %2, align 8, !tbaa !19
  ret void
}

; Function Attrs: inlinehint mustprogress nounwind uwtable
define linkonce_odr hidden void @_ZN6spacer13user_callbackD0Ev(ptr noundef nonnull align 8 dereferenceable(48) %0) unnamed_addr #6 comdat align 2 {
  %2 = alloca ptr, align 8
  store ptr %0, ptr %2, align 8, !tbaa !3
  %3 = load ptr, ptr %2, align 8
  call void @_ZN6spacer15spacer_callbackD2Ev(ptr noundef nonnull align 8 dereferenceable(48) %3) #3
  call void @_ZdlPvm(ptr noundef %3, i64 noundef 48) #8
  ret void
}

; Function Attrs: inlinehint mustprogress nounwind uwtable
define linkonce_odr hidden noundef zeroext i1 @_ZN6spacer13user_callback9new_lemmaEv(ptr noundef nonnull align 8 dereferenceable(48) %0) unnamed_addr #6 comdat align 2 {
  %2 = alloca ptr, align 8
  store ptr %0, ptr %2, align 8, !tbaa !3
  %3 = load ptr, ptr %2, align 8
  %4 = getelementptr inbounds nuw %"class.spacer::user_callback", ptr %3, i32 0, i32 2
  %5 = load ptr, ptr %4, align 8, !tbaa !12
  %6 = icmp ne ptr %5, null
  ret i1 %6
}

; Function Attrs: inlinehint mustprogress nounwind uwtable
define linkonce_odr hidden noundef zeroext i1 @_ZN6spacer13user_callback11predecessorEv(ptr noundef nonnull align 8 dereferenceable(48) %0) unnamed_addr #6 comdat align 2 {
  %2 = alloca ptr, align 8
  store ptr %0, ptr %2, align 8, !tbaa !3
  %3 = load ptr, ptr %2, align 8
  %4 = getelementptr inbounds nuw %"class.spacer::user_callback", ptr %3, i32 0, i32 3
  %5 = load ptr, ptr %4, align 8, !tbaa !17
  %6 = icmp ne ptr %5, null
  ret i1 %6
}

; Function Attrs: inlinehint mustprogress nounwind uwtable
define linkonce_odr hidden noundef zeroext i1 @_ZN6spacer13user_callback6unfoldEv(ptr noundef nonnull align 8 dereferenceable(48) %0) unnamed_addr #6 comdat align 2 {
  %2 = alloca ptr, align 8
  store ptr %0, ptr %2, align 8, !tbaa !3
  %3 = load ptr, ptr %2, align 8
  %4 = getelementptr inbounds nuw %"class.spacer::user_callback", ptr %3, i32 0, i32 4
  %5 = load ptr, ptr %4, align 8, !tbaa !18
  %6 = icmp ne ptr %5, null
  ret i1 %6
}

; Function Attrs: inlinehint mustprogress nounwind uwtable
define linkonce_odr hidden noundef zeroext i1 @_ZN6spacer15spacer_callback9propagateEv(ptr noundef nonnull align 8 dereferenceable(16) %0) unnamed_addr #6 comdat align 2 {
  %2 = alloca ptr, align 8
  store ptr %0, ptr %2, align 8, !tbaa !19
  ret i1 false
}

; Function Attrs: mustprogress nounwind uwtable
define linkonce_odr hidden void @_ZN6spacer15spacer_callback12propagate_ehEv(ptr noundef nonnull align 8 dereferenceable(16) %0) unnamed_addr #5 comdat align 2 {
  %2 = alloca ptr, align 8
  store ptr %0, ptr %2, align 8, !tbaa !19
  ret void
}

; Function Attrs: nobuiltin nounwind
declare void @_ZdlPvm(ptr noundef, i64 noundef) #7

; Function Attrs: uwtable
define internal void @_GLOBAL__sub_I_spacer_callback.cpp() #0 section ".text.startup" {
  call void @__cxx_global_var_init()
  ret void
}


!llvm.linker.options = !{}
!llvm.module.flags = !{!0, !1, !2}

!0 = !{i32 1, !"wchar_size", i32 4}
!1 = !{i32 8, !"PIC Level", i32 2}
!2 = !{i32 7, !"uwtable", i32 2}
!3 = !{!4, !4, i64 0}
!4 = !{!"p1 _ZTSN6spacer13user_callbackE", !5, i64 0}
!5 = !{!"any pointer", !6, i64 0}
!6 = !{!"omnipotent char", !7, i64 0}
!7 = !{!"Simple C++ TBAA"}
!8 = !{!9, !9, i64 0}
!9 = !{!"p1 _ZTS4expr", !5, i64 0}
!10 = !{!11, !11, i64 0}
!11 = !{!"int", !6, i64 0}
!12 = !{!13, !5, i64 24}
!13 = !{!"_ZTSN6spacer13user_callbackE", !14, i64 0, !5, i64 16, !5, i64 24, !5, i64 32, !5, i64 40}
!14 = !{!"_ZTSN6spacer15spacer_callbackE", !15, i64 8}
!15 = !{!"p1 _ZTSN6spacer7contextE", !5, i64 0}
!16 = !{!13, !5, i64 16}
!17 = !{!13, !5, i64 32}
!18 = !{!13, !5, i64 40}
!19 = !{!20, !20, i64 0}
!20 = !{!"p1 _ZTSN6spacer15spacer_callbackE", !5, i64 0}
