; ModuleID = 'bench/z3/original/spacer_callback.ll'
source_filename = "bench/z3/original/spacer_callback.ll"
target datalayout = "e-m:e-p270:32:32-p271:32:32-p272:64:64-i64:64-i128:128-f80:128-n8:16:32:64-S128"
target triple = "x86_64-pc-linux-gnu"

%"class.std::ios_base::Init" = type { i8 }

$_ZN6spacer15spacer_callbackD2Ev = comdat any

$_ZN6spacer13user_callbackD0Ev = comdat any

$_ZN6spacer13user_callback9new_lemmaEv = comdat any

$_ZN6spacer13user_callback11predecessorEv = comdat any

$_ZN6spacer13user_callback6unfoldEv = comdat any

$_ZN6spacer15spacer_callback9propagateEv = comdat any

$_ZN6spacer15spacer_callback12propagate_ehEv = comdat any

$_ZTIN6spacer15spacer_callbackE = comdat any

$_ZTSN6spacer15spacer_callbackE = comdat any

@_ZStL8__ioinit = internal global %"class.std::ios_base::Init" zeroinitializer, align 1
@__dso_handle = external hidden global i8
@_ZTVN6spacer13user_callbackE = hidden unnamed_addr constant { [12 x ptr] } { [12 x ptr] [ptr null, ptr @_ZTIN6spacer13user_callbackE, ptr @_ZN6spacer15spacer_callbackD2Ev, ptr @_ZN6spacer13user_callbackD0Ev, ptr @_ZN6spacer13user_callback9new_lemmaEv, ptr @_ZN6spacer13user_callback12new_lemma_ehEP4exprj, ptr @_ZN6spacer13user_callback11predecessorEv, ptr @_ZN6spacer13user_callback14predecessor_ehEv, ptr @_ZN6spacer13user_callback6unfoldEv, ptr @_ZN6spacer13user_callback9unfold_ehEv, ptr @_ZN6spacer15spacer_callback9propagateEv, ptr @_ZN6spacer15spacer_callback12propagate_ehEv] }, align 8
@_ZTIN6spacer13user_callbackE = hidden constant { ptr, ptr, ptr } { ptr getelementptr inbounds (ptr, ptr @_ZTVN10__cxxabiv120__si_class_type_infoE, i64 2), ptr @_ZTSN6spacer13user_callbackE, ptr @_ZTIN6spacer15spacer_callbackE }, align 8
@_ZTVN10__cxxabiv120__si_class_type_infoE = external global [0 x ptr]
@_ZTSN6spacer13user_callbackE = hidden constant [25 x i8] c"N6spacer13user_callbackE\00", align 1
@_ZTIN6spacer15spacer_callbackE = linkonce_odr hidden constant { ptr, ptr } { ptr getelementptr inbounds (ptr, ptr @_ZTVN10__cxxabiv117__class_type_infoE, i64 2), ptr @_ZTSN6spacer15spacer_callbackE }, comdat, align 8
@_ZTVN10__cxxabiv117__class_type_infoE = external global [0 x ptr]
@_ZTSN6spacer15spacer_callbackE = linkonce_odr hidden constant [27 x i8] c"N6spacer15spacer_callbackE\00", comdat, align 1
@llvm.global_ctors = appending global [1 x { i32, ptr, ptr }] [{ i32, ptr, ptr } { i32 65535, ptr @_GLOBAL__sub_I_spacer_callback.cpp, ptr null }]

declare void @_ZNSt8ios_base4InitC1Ev(ptr noundef nonnull align 1 dereferenceable(1)) unnamed_addr #0

; Function Attrs: nounwind
declare void @_ZNSt8ios_base4InitD1Ev(ptr noundef nonnull align 1 dereferenceable(1)) unnamed_addr #1

; Function Attrs: nofree nounwind
declare i32 @__cxa_atexit(ptr, ptr, ptr) local_unnamed_addr #2

; Function Attrs: mustprogress uwtable
define hidden void @_ZN6spacer13user_callback12new_lemma_ehEP4exprj(ptr noundef nonnull readonly align 8 captures(none) dereferenceable(48) %0, ptr noundef %1, i32 noundef %2) unnamed_addr #3 align 2 {
  %4 = getelementptr inbounds nuw i8, ptr %0, i64 24
  %5 = load ptr, ptr %4, align 8, !tbaa !3
  %6 = getelementptr inbounds nuw i8, ptr %0, i64 16
  %7 = load ptr, ptr %6, align 8, !tbaa !10
  tail call void %5(ptr noundef %7, ptr noundef %1, i32 noundef %2)
  ret void
}

; Function Attrs: mustprogress uwtable
define hidden void @_ZN6spacer13user_callback14predecessor_ehEv(ptr noundef nonnull readonly align 8 captures(none) dereferenceable(48) %0) unnamed_addr #3 align 2 {
  %2 = getelementptr inbounds nuw i8, ptr %0, i64 32
  %3 = load ptr, ptr %2, align 8, !tbaa !11
  %4 = getelementptr inbounds nuw i8, ptr %0, i64 16
  %5 = load ptr, ptr %4, align 8, !tbaa !10
  tail call void %3(ptr noundef %5)
  ret void
}

; Function Attrs: mustprogress uwtable
define hidden void @_ZN6spacer13user_callback9unfold_ehEv(ptr noundef nonnull readonly align 8 captures(none) dereferenceable(48) %0) unnamed_addr #3 align 2 {
  %2 = getelementptr inbounds nuw i8, ptr %0, i64 40
  %3 = load ptr, ptr %2, align 8, !tbaa !12
  %4 = getelementptr inbounds nuw i8, ptr %0, i64 16
  %5 = load ptr, ptr %4, align 8, !tbaa !10
  tail call void %3(ptr noundef %5)
  ret void
}

; Function Attrs: mustprogress nounwind uwtable
define linkonce_odr hidden void @_ZN6spacer15spacer_callbackD2Ev(ptr noundef nonnull align 8 dereferenceable(16) %0) unnamed_addr #4 comdat align 2 {
  ret void
}

; Function Attrs: inlinehint mustprogress nounwind uwtable
define linkonce_odr hidden void @_ZN6spacer13user_callbackD0Ev(ptr noundef nonnull align 8 dereferenceable(48) %0) unnamed_addr #5 comdat align 2 {
  tail call void @_ZdlPvm(ptr noundef nonnull %0, i64 noundef 48) #8
  ret void
}

; Function Attrs: inlinehint mustprogress nounwind uwtable
define linkonce_odr hidden noundef zeroext i1 @_ZN6spacer13user_callback9new_lemmaEv(ptr noundef nonnull align 8 dereferenceable(48) %0) unnamed_addr #5 comdat align 2 {
  %2 = getelementptr inbounds nuw i8, ptr %0, i64 24
  %3 = load ptr, ptr %2, align 8, !tbaa !3
  %4 = icmp ne ptr %3, null
  ret i1 %4
}

; Function Attrs: inlinehint mustprogress nounwind uwtable
define linkonce_odr hidden noundef zeroext i1 @_ZN6spacer13user_callback11predecessorEv(ptr noundef nonnull align 8 dereferenceable(48) %0) unnamed_addr #5 comdat align 2 {
  %2 = getelementptr inbounds nuw i8, ptr %0, i64 32
  %3 = load ptr, ptr %2, align 8, !tbaa !11
  %4 = icmp ne ptr %3, null
  ret i1 %4
}

; Function Attrs: inlinehint mustprogress nounwind uwtable
define linkonce_odr hidden noundef zeroext i1 @_ZN6spacer13user_callback6unfoldEv(ptr noundef nonnull align 8 dereferenceable(48) %0) unnamed_addr #5 comdat align 2 {
  %2 = getelementptr inbounds nuw i8, ptr %0, i64 40
  %3 = load ptr, ptr %2, align 8, !tbaa !12
  %4 = icmp ne ptr %3, null
  ret i1 %4
}

; Function Attrs: inlinehint mustprogress nounwind uwtable
define linkonce_odr hidden noundef zeroext i1 @_ZN6spacer15spacer_callback9propagateEv(ptr noundef nonnull align 8 dereferenceable(16) %0) unnamed_addr #5 comdat align 2 {
  ret i1 false
}

; Function Attrs: mustprogress nounwind uwtable
define linkonce_odr hidden void @_ZN6spacer15spacer_callback12propagate_ehEv(ptr noundef nonnull align 8 dereferenceable(16) %0) unnamed_addr #4 comdat align 2 {
  ret void
}

; Function Attrs: nobuiltin nounwind
declare void @_ZdlPvm(ptr noundef, i64 noundef) local_unnamed_addr #6

; Function Attrs: uwtable
define internal void @_GLOBAL__sub_I_spacer_callback.cpp() #7 section ".text.startup" {
  tail call void @_ZNSt8ios_base4InitC1Ev(ptr noundef nonnull align 1 dereferenceable(1) @_ZStL8__ioinit)
  %1 = tail call i32 @__cxa_atexit(ptr nonnull @_ZNSt8ios_base4InitD1Ev, ptr nonnull @_ZStL8__ioinit, ptr nonnull @__dso_handle) #9
  ret void
}


!llvm.linker.options = !{}
!llvm.module.flags = !{!0, !1, !2}

!0 = !{i32 1, !"wchar_size", i32 4}
!1 = !{i32 8, !"PIC Level", i32 2}
!2 = !{i32 7, !"uwtable", i32 2}
!3 = !{!4, !7, i64 24}
!4 = !{!"_ZTSN6spacer13user_callbackE", !5, i64 0, !7, i64 16, !7, i64 24, !7, i64 32, !7, i64 40}
!5 = !{!"_ZTSN6spacer15spacer_callbackE", !6, i64 8}
!6 = !{!"p1 _ZTSN6spacer7contextE", !7, i64 0}
!7 = !{!"any pointer", !8, i64 0}
!8 = !{!"omnipotent char", !9, i64 0}
!9 = !{!"Simple C++ TBAA"}
!10 = !{!4, !7, i64 16}
!11 = !{!4, !7, i64 32}
!12 = !{!4, !7, i64 40}
